target datalayout = "e-m:e-p270:32:32-p271:32:32-p272:64:64-i64:64-i128:128-f80:128-n8:16:32:64-S128"
target triple = "x86_64-pc-linux-gnu"

@.str = private unnamed_addr constant [5 x i8] c"NONE\00", align 1
@.str.1 = private unnamed_addr constant [19 x i8] c"PREPROCESSED_INPUT\00", align 1
@.str.2 = private unnamed_addr constant [13 x i8] c"THEORY_LEMMA\00", align 1
@.str.3 = private unnamed_addr constant [23 x i8] c"THEORY_INFERENCE_ARITH\00", align 1
@.str.4 = private unnamed_addr constant [24 x i8] c"THEORY_INFERENCE_ARRAYS\00", align 1
@.str.5 = private unnamed_addr constant [27 x i8] c"THEORY_INFERENCE_DATATYPES\00", align 1
@.str.6 = private unnamed_addr constant [21 x i8] c"THEORY_INFERENCE_SEP\00", align 1
@.str.7 = private unnamed_addr constant [22 x i8] c"THEORY_INFERENCE_SETS\00", align 1
@.str.8 = private unnamed_addr constant [25 x i8] c"THEORY_INFERENCE_STRINGS\00", align 1
@.str.9 = private unnamed_addr constant [18 x i8] c"PP_STATIC_REWRITE\00", align 1
@.str.10 = private unnamed_addr constant [18 x i8] c"THEORY_PREPROCESS\00", align 1
@.str.11 = private unnamed_addr constant [24 x i8] c"THEORY_PREPROCESS_LEMMA\00", align 1
@.str.12 = private unnamed_addr constant [18 x i8] c"THEORY_EXPAND_DEF\00", align 1
@.str.13 = private unnamed_addr constant [20 x i8] c"PREPROCESS_BV_GUASS\00", align 1
@.str.14 = private unnamed_addr constant [26 x i8] c"PREPROCESS_BV_GUASS_LEMMA\00", align 1
@.str.15 = private unnamed_addr constant [22 x i8] c"PREPROCESS_BV_TO_BOOL\00", align 1
@.str.16 = private unnamed_addr constant [21 x i8] c"PREPROCESS_BV_TO_INT\00", align 1
@.str.17 = private unnamed_addr constant [27 x i8] c"PREPROCESS_BV_TO_INT_LEMMA\00", align 1
@.str.18 = private unnamed_addr constant [22 x i8] c"PREPROCESS_BOOL_TO_BV\00", align 1
@.str.19 = private unnamed_addr constant [21 x i8] c"PREPROCESS_ACKERMANN\00", align 1
@.str.20 = private unnamed_addr constant [27 x i8] c"PREPROCESS_ACKERMANN_LEMMA\00", align 1
@.str.21 = private unnamed_addr constant [33 x i8] c"PREPROCESS_STATIC_LEARNING_LEMMA\00", align 1
@.str.22 = private unnamed_addr constant [19 x i8] c"PREPROCESS_HO_ELIM\00", align 1
@.str.23 = private unnamed_addr constant [25 x i8] c"PREPROCESS_HO_ELIM_LEMMA\00", align 1
@.str.24 = private unnamed_addr constant [33 x i8] c"PREPROCESS_BITVECTOR_EAGER_ATOMS\00", align 1
@.str.25 = private unnamed_addr constant [21 x i8] c"PREPROCESS_FF_BITSUM\00", align 1
@.str.26 = private unnamed_addr constant [30 x i8] c"PREPROCESS_FF_DISJUNCTIVE_BIT\00", align 1
@.str.27 = private unnamed_addr constant [23 x i8] c"PREPROCESS_FUN_DEF_FMF\00", align 1
@.str.28 = private unnamed_addr constant [20 x i8] c"PREPROCESS_ITE_SIMP\00", align 1
@.str.29 = private unnamed_addr constant [27 x i8] c"PREPROCESS_LEARNED_REWRITE\00", align 1
@.str.30 = private unnamed_addr constant [33 x i8] c"PREPROCESS_LEARNED_REWRITE_LEMMA\00", align 1
@.str.31 = private unnamed_addr constant [24 x i8] c"PREPROCESS_MIPLIB_TRICK\00", align 1
@.str.32 = private unnamed_addr constant [30 x i8] c"PREPROCESS_MIPLIB_TRICK_LEMMA\00", align 1
@.str.33 = private unnamed_addr constant [25 x i8] c"PREPROCESS_NL_EXT_PURIFY\00", align 1
@.str.34 = private unnamed_addr constant [31 x i8] c"PREPROCESS_NL_EXT_PURIFY_LEMMA\00", align 1
@.str.35 = private unnamed_addr constant [25 x i8] c"PREPROCESS_BV_INTRO_POW2\00", align 1
@.str.36 = private unnamed_addr constant [34 x i8] c"PREPROCESS_FOREIGN_THEORY_REWRITE\00", align 1
@.str.37 = private unnamed_addr constant [30 x i8] c"PREPROCESS_UNCONSTRAINED_SIMP\00", align 1
@.str.38 = private unnamed_addr constant [26 x i8] c"PREPROCESS_QUANTIFIERS_PP\00", align 1
@.str.39 = private unnamed_addr constant [23 x i8] c"PREPROCESS_REAL_TO_INT\00", align 1
@.str.40 = private unnamed_addr constant [22 x i8] c"PREPROCESS_SORT_INFER\00", align 1
@.str.41 = private unnamed_addr constant [28 x i8] c"PREPROCESS_SORT_INFER_LEMMA\00", align 1
@.str.42 = private unnamed_addr constant [28 x i8] c"PREPROCESS_STRINGS_EAGER_PP\00", align 1
@.str.43 = private unnamed_addr constant [25 x i8] c"ARITH_NL_COVERING_DIRECT\00", align 1
@.str.44 = private unnamed_addr constant [28 x i8] c"ARITH_NL_COVERING_RECURSIVE\00", align 1
@.str.45 = private unnamed_addr constant [31 x i8] c"ARITH_NL_COMPARE_LIT_TRANSFORM\00", align 1
@.str.46 = private unnamed_addr constant [16 x i8] c"ARITH_DIO_LEMMA\00", align 1
@.str.47 = private unnamed_addr constant [19 x i8] c"ARITH_STATIC_LEARN\00", align 1
@.str.48 = private unnamed_addr constant [23 x i8] c"ARITH_NL_COMPARE_LEMMA\00", align 1
@.str.49 = private unnamed_addr constant [9 x i8] c"DIAMONDS\00", align 1
@.str.50 = private unnamed_addr constant [19 x i8] c"EXT_THEORY_REWRITE\00", align 1
@.str.51 = private unnamed_addr constant [21 x i8] c"REWRITE_NO_ELABORATE\00", align 1
@.str.52 = private unnamed_addr constant [19 x i8] c"FLATTENING_REWRITE\00", align 1
@.str.53 = private unnamed_addr constant [18 x i8] c"SUBS_NO_ELABORATE\00", align 1
@.str.54 = private unnamed_addr constant [9 x i8] c"SUBS_MAP\00", align 1
@.str.55 = private unnamed_addr constant [8 x i8] c"SUBS_EQ\00", align 1
@.str.56 = private unnamed_addr constant [21 x i8] c"ARITH_PRED_CAST_TYPE\00", align 1
@.str.57 = private unnamed_addr constant [8 x i8] c"RE_ELIM\00", align 1
@.str.58 = private unnamed_addr constant [23 x i8] c"QUANTIFIERS_PREPROCESS\00", align 1
@.str.59 = private unnamed_addr constant [25 x i8] c"QUANTIFIERS_INST_REWRITE\00", align 1
@.str.60 = private unnamed_addr constant [27 x i8] c"QUANTIFIERS_SUB_CBQI_LEMMA\00", align 1
@.str.61 = private unnamed_addr constant [28 x i8] c"QUANTIFIERS_NESTED_QE_LEMMA\00", align 1
@.str.62 = private unnamed_addr constant [26 x i8] c"STRINGS_PP_STATIC_REWRITE\00", align 1
@.str.63 = private unnamed_addr constant [14 x i8] c"VALID_WITNESS\00", align 1
@.str.64 = private unnamed_addr constant [20 x i8] c"SUBTYPE_ELIMINATION\00", align 1
@.str.65 = private unnamed_addr constant [27 x i8] c"MACRO_THEORY_REWRITE_RCONS\00", align 1
@.str.66 = private unnamed_addr constant [34 x i8] c"MACRO_THEORY_REWRITE_RCONS_SIMPLE\00", align 1
@.str.67 = private unnamed_addr constant [12 x i8] c"INT_BLASTER\00", align 1
@.str.68 = private unnamed_addr constant [19 x i8] c"UNKNOWN_PREPROCESS\00", align 1
@.str.69 = private unnamed_addr constant [25 x i8] c"UNKNOWN_PREPROCESS_LEMMA\00", align 1
@.str.70 = private unnamed_addr constant [17 x i8] c"TrustId::Unknown\00", align 1

; Function Attrs: mustprogress nounwind uwtable
define hidden noundef ptr @_ZN4cvc58internal8toStringENS0_7TrustIdE(i32 noundef %0) #4 {
  %2 = alloca ptr, align 8
  %3 = alloca i32, align 4
  store i32 %0, ptr %3, align 4, !tbaa !3
  %4 = load i32, ptr %3, align 4, !tbaa !3
  switch i32 %4, label %75 [
    i32 0, label %5
    i32 1, label %6
    i32 2, label %7
    i32 3, label %8
    i32 4, label %9
    i32 5, label %10
    i32 6, label %11
    i32 7, label %12
    i32 8, label %13
    i32 9, label %14
    i32 10, label %15
    i32 11, label %16
    i32 12, label %17
    i32 13, label %18
    i32 14, label %19
    i32 15, label %20
    i32 16, label %21
    i32 17, label %22
    i32 18, label %23
    i32 19, label %24
    i32 20, label %25
    i32 21, label %26
    i32 22, label %27
    i32 23, label %28
    i32 24, label %29
    i32 25, label %30
    i32 26, label %31
    i32 27, label %32
    i32 28, label %33
    i32 29, label %34
    i32 30, label %35
    i32 31, label %36
    i32 32, label %37
    i32 33, label %38
    i32 34, label %39
    i32 35, label %40
    i32 36, label %41
    i32 37, label %42
    i32 38, label %43
    i32 39, label %44
    i32 40, label %45
    i32 41, label %46
    i32 42, label %47
    i32 43, label %48
    i32 44, label %49
    i32 45, label %50
    i32 46, label %51
    i32 47, label %52
    i32 48, label %53
    i32 49, label %54
    i32 50, label %55
    i32 51, label %56
    i32 52, label %57
    i32 53, label %58
    i32 54, label %59
    i32 55, label %60
    i32 56, label %61
    i32 57, label %62
    i32 58, label %63
    i32 59, label %64
    i32 60, label %65
    i32 61, label %66
    i32 62, label %67
    i32 63, label %68
    i32 64, label %69
    i32 65, label %70
    i32 66, label %71
    i32 67, label %72
    i32 68, label %73
    i32 69, label %74
  ]

5:                                                ; preds = %1
  store ptr @.str, ptr %2, align 8
  br label %76

6:                                                ; preds = %1
  store ptr @.str.1, ptr %2, align 8
  br label %76

7:                                                ; preds = %1
  store ptr @.str.2, ptr %2, align 8
  br label %76

8:                                                ; preds = %1
  store ptr @.str.3, ptr %2, align 8
  br label %76

9:                                                ; preds = %1
  store ptr @.str.4, ptr %2, align 8
  br label %76

10:                                               ; preds = %1
  store ptr @.str.5, ptr %2, align 8
  br label %76

11:                                               ; preds = %1
  store ptr @.str.6, ptr %2, align 8
  br label %76

12:                                               ; preds = %1
  store ptr @.str.7, ptr %2, align 8
  br label %76

13:                                               ; preds = %1
  store ptr @.str.8, ptr %2, align 8
  br label %76

14:                                               ; preds = %1
  store ptr @.str.9, ptr %2, align 8
  br label %76

15:                                               ; preds = %1
  store ptr @.str.10, ptr %2, align 8
  br label %76

16:                                               ; preds = %1
  store ptr @.str.11, ptr %2, align 8
  br label %76

17:                                               ; preds = %1
  store ptr @.str.12, ptr %2, align 8
  br label %76

18:                                               ; preds = %1
  store ptr @.str.13, ptr %2, align 8
  br label %76

19:                                               ; preds = %1
  store ptr @.str.14, ptr %2, align 8
  br label %76

20:                                               ; preds = %1
  store ptr @.str.15, ptr %2, align 8
  br label %76

21:                                               ; preds = %1
  store ptr @.str.16, ptr %2, align 8
  br label %76

22:                                               ; preds = %1
  store ptr @.str.17, ptr %2, align 8
  br label %76

23:                                               ; preds = %1
  store ptr @.str.18, ptr %2, align 8
  br label %76

24:                                               ; preds = %1
  store ptr @.str.19, ptr %2, align 8
  br label %76

25:                                               ; preds = %1
  store ptr @.str.20, ptr %2, align 8
  br label %76

26:                                               ; preds = %1
  store ptr @.str.21, ptr %2, align 8
  br label %76

27:                                               ; preds = %1
  store ptr @.str.22, ptr %2, align 8
  br label %76

28:                                               ; preds = %1
  store ptr @.str.23, ptr %2, align 8
  br label %76

29:                                               ; preds = %1
  store ptr @.str.24, ptr %2, align 8
  br label %76

30:                                               ; preds = %1
  store ptr @.str.25, ptr %2, align 8
  br label %76

31:                                               ; preds = %1
  store ptr @.str.26, ptr %2, align 8
  br label %76

32:                                               ; preds = %1
  store ptr @.str.27, ptr %2, align 8
  br label %76

33:                                               ; preds = %1
  store ptr @.str.28, ptr %2, align 8
  br label %76

34:                                               ; preds = %1
  store ptr @.str.29, ptr %2, align 8
  br label %76

35:                                               ; preds = %1
  store ptr @.str.30, ptr %2, align 8
  br label %76

36:                                               ; preds = %1
  store ptr @.str.31, ptr %2, align 8
  br label %76

37:                                               ; preds = %1
  store ptr @.str.32, ptr %2, align 8
  br label %76

38:                                               ; preds = %1
  store ptr @.str.33, ptr %2, align 8
  br label %76

39:                                               ; preds = %1
  store ptr @.str.34, ptr %2, align 8
  br label %76

40:                                               ; preds = %1
  store ptr @.str.35, ptr %2, align 8
  br label %76

41:                                               ; preds = %1
  store ptr @.str.36, ptr %2, align 8
  br label %76

42:                                               ; preds = %1
  store ptr @.str.37, ptr %2, align 8
  br label %76

43:                                               ; preds = %1
  store ptr @.str.38, ptr %2, align 8
  br label %76

44:                                               ; preds = %1
  store ptr @.str.39, ptr %2, align 8
  br label %76

45:                                               ; preds = %1
  store ptr @.str.40, ptr %2, align 8
  br label %76

46:                                               ; preds = %1
  store ptr @.str.41, ptr %2, align 8
  br label %76

47:                                               ; preds = %1
  store ptr @.str.42, ptr %2, align 8
  br label %76

48:                                               ; preds = %1
  store ptr @.str.43, ptr %2, align 8
  br label %76

49:                                               ; preds = %1
  store ptr @.str.44, ptr %2, align 8
  br label %76

50:                                               ; preds = %1
  store ptr @.str.45, ptr %2, align 8
  br label %76

51:                                               ; preds = %1
  store ptr @.str.46, ptr %2, align 8
  br label %76

52:                                               ; preds = %1
  store ptr @.str.47, ptr %2, align 8
  br label %76

53:                                               ; preds = %1
  store ptr @.str.48, ptr %2, align 8
  br label %76

54:                                               ; preds = %1
  store ptr @.str.49, ptr %2, align 8
  br label %76

55:                                               ; preds = %1
  store ptr @.str.50, ptr %2, align 8
  br label %76

56:                                               ; preds = %1
  store ptr @.str.51, ptr %2, align 8
  br label %76

57:                                               ; preds = %1
  store ptr @.str.52, ptr %2, align 8
  br label %76

58:                                               ; preds = %1
  store ptr @.str.53, ptr %2, align 8
  br label %76

59:                                               ; preds = %1
  store ptr @.str.54, ptr %2, align 8
  br label %76

60:                                               ; preds = %1
  store ptr @.str.55, ptr %2, align 8
  br label %76

61:                                               ; preds = %1
  store ptr @.str.56, ptr %2, align 8
  br label %76

62:                                               ; preds = %1
  store ptr @.str.57, ptr %2, align 8
  br label %76

63:                                               ; preds = %1
  store ptr @.str.58, ptr %2, align 8
  br label %76

64:                                               ; preds = %1
  store ptr @.str.59, ptr %2, align 8
  br label %76

65:                                               ; preds = %1
  store ptr @.str.60, ptr %2, align 8
  br label %76

66:                                               ; preds = %1
  store ptr @.str.61, ptr %2, align 8
  br label %76

67:                                               ; preds = %1
  store ptr @.str.62, ptr %2, align 8
  br label %76

68:                                               ; preds = %1
  store ptr @.str.63, ptr %2, align 8
  br label %76

69:                                               ; preds = %1
  store ptr @.str.64, ptr %2, align 8
  br label %76

70:                                               ; preds = %1
  store ptr @.str.65, ptr %2, align 8
  br label %76

71:                                               ; preds = %1
  store ptr @.str.66, ptr %2, align 8
  br label %76

72:                                               ; preds = %1
  store ptr @.str.67, ptr %2, align 8
  br label %76

73:                                               ; preds = %1
  store ptr @.str.68, ptr %2, align 8
  br label %76

74:                                               ; preds = %1
  store ptr @.str.69, ptr %2, align 8
  br label %76

75:                                               ; preds = %1
  store ptr @.str.70, ptr %2, align 8
  br label %76

76:                                               ; preds = %75, %74, %73, %72, %71, %70, %69, %68, %67, %66, %65, %64, %63, %62, %61, %60, %59, %58, %57, %56, %55, %54, %53, %52, %51, %50, %49, %48, %47, %46, %45, %44, %43, %42, %41, %40, %39, %38, %37, %36, %35, %34, %33, %32, %31, %30, %29, %28, %27, %26, %25, %24, %23, %22, %21, %20, %19, %18, %17, %16, %15, %14, %13, %12, %11, %10, %9, %8, %7, %6, %5
  %77 = load ptr, ptr %2, align 8
  ret ptr %77
}